target datalayout = "e-m:e-p270:32:32-p271:32:32-p272:64:64-i64:64-i128:128-f80:128-n8:16:32:64-S128"
target triple = "x86_64-pc-linux-gnu"

%struct._spdu_signal_list_uat = type { i32, i32, i32, ptr, ptr, ptr, i8, i32, i32, ptr, ptr, i8, i32, i8, i8, i8, i8 }

; Function Attrs: null_pointer_is_valid sspstrong uwtable
define internal ptr @copy_spdu_signal_list_cb(ptr noundef %0, ptr noundef %1, i64 noundef %2) #0 {
  %4 = alloca ptr, align 8
  %5 = alloca ptr, align 8
  %6 = alloca i64, align 8
  %7 = alloca ptr, align 8
  %8 = alloca ptr, align 8
  store ptr %0, ptr %4, align 8
  store ptr %1, ptr %5, align 8
  store i64 %2, ptr %6, align 8
  call void @llvm.lifetime.start.p0(i64 8, ptr %7) #14
  %9 = load ptr, ptr %4, align 8
  store ptr %9, ptr %7, align 8
  call void @llvm.lifetime.start.p0(i64 8, ptr %8) #14
  %10 = load ptr, ptr %5, align 8
  store ptr %10, ptr %8, align 8
  %11 = load ptr, ptr %8, align 8
  %12 = getelementptr inbounds nuw %struct._spdu_signal_list_uat, ptr %11, i32 0, i32 0
  %13 = load i32, ptr %12, align 8
  %14 = load ptr, ptr %7, align 8
  %15 = getelementptr inbounds nuw %struct._spdu_signal_list_uat, ptr %14, i32 0, i32 0
  store i32 %13, ptr %15, align 8
  %16 = load ptr, ptr %8, align 8
  %17 = getelementptr inbounds nuw %struct._spdu_signal_list_uat, ptr %16, i32 0, i32 1
  %18 = load i32, ptr %17, align 4
  %19 = load ptr, ptr %7, align 8
  %20 = getelementptr inbounds nuw %struct._spdu_signal_list_uat, ptr %19, i32 0, i32 1
  store i32 %18, ptr %20, align 4
  %21 = load ptr, ptr %8, align 8
  %22 = getelementptr inbounds nuw %struct._spdu_signal_list_uat, ptr %21, i32 0, i32 2
  %23 = load i32, ptr %22, align 8
  %24 = load ptr, ptr %7, align 8
  %25 = getelementptr inbounds nuw %struct._spdu_signal_list_uat, ptr %24, i32 0, i32 2
  store i32 %23, ptr %25, align 8
  %26 = load ptr, ptr %8, align 8
  %27 = getelementptr inbounds nuw %struct._spdu_signal_list_uat, ptr %26, i32 0, i32 3
  %28 = load ptr, ptr %27, align 8
  %29 = icmp ne ptr %28, null
  br i1 %29, label %30, label %37

30:                                               ; preds = %3
  %31 = load ptr, ptr %8, align 8
  %32 = getelementptr inbounds nuw %struct._spdu_signal_list_uat, ptr %31, i32 0, i32 3
  %33 = load ptr, ptr %32, align 8
  %34 = call noalias ptr @g_strdup(ptr noundef %33)
  %35 = load ptr, ptr %7, align 8
  %36 = getelementptr inbounds nuw %struct._spdu_signal_list_uat, ptr %35, i32 0, i32 3
  store ptr %34, ptr %36, align 8
  br label %40

37:                                               ; preds = %3
  %38 = load ptr, ptr %7, align 8
  %39 = getelementptr inbounds nuw %struct._spdu_signal_list_uat, ptr %38, i32 0, i32 3
  store ptr null, ptr %39, align 8
  br label %40

40:                                               ; preds = %37, %30
  %41 = load ptr, ptr %8, align 8
  %42 = getelementptr inbounds nuw %struct._spdu_signal_list_uat, ptr %41, i32 0, i32 4
  %43 = load ptr, ptr %42, align 8
  %44 = icmp ne ptr %43, null
  br i1 %44, label %45, label %52

45:                                               ; preds = %40
  %46 = load ptr, ptr %8, align 8
  %47 = getelementptr inbounds nuw %struct._spdu_signal_list_uat, ptr %46, i32 0, i32 4
  %48 = load ptr, ptr %47, align 8
  %49 = call noalias ptr @g_strdup(ptr noundef %48)
  %50 = load ptr, ptr %7, align 8
  %51 = getelementptr inbounds nuw %struct._spdu_signal_list_uat, ptr %50, i32 0, i32 4
  store ptr %49, ptr %51, align 8
  br label %55

52:                                               ; preds = %40
  %53 = load ptr, ptr %7, align 8
  %54 = getelementptr inbounds nuw %struct._spdu_signal_list_uat, ptr %53, i32 0, i32 4
  store ptr null, ptr %54, align 8
  br label %55

55:                                               ; preds = %52, %45
  %56 = load ptr, ptr %8, align 8
  %57 = getelementptr inbounds nuw %struct._spdu_signal_list_uat, ptr %56, i32 0, i32 5
  %58 = load ptr, ptr %57, align 8
  %59 = icmp ne ptr %58, null
  br i1 %59, label %60, label %67

60:                                               ; preds = %55
  %61 = load ptr, ptr %8, align 8
  %62 = getelementptr inbounds nuw %struct._spdu_signal_list_uat, ptr %61, i32 0, i32 5
  %63 = load ptr, ptr %62, align 8
  %64 = call noalias ptr @g_strdup(ptr noundef %63)
  %65 = load ptr, ptr %7, align 8
  %66 = getelementptr inbounds nuw %struct._spdu_signal_list_uat, ptr %65, i32 0, i32 5
  store ptr %64, ptr %66, align 8
  br label %70

67:                                               ; preds = %55
  %68 = load ptr, ptr %7, align 8
  %69 = getelementptr inbounds nuw %struct._spdu_signal_list_uat, ptr %68, i32 0, i32 5
  store ptr null, ptr %69, align 8
  br label %70

70:                                               ; preds = %67, %60
  %71 = load ptr, ptr %8, align 8
  %72 = getelementptr inbounds nuw %struct._spdu_signal_list_uat, ptr %71, i32 0, i32 6
  %73 = load i8, ptr %72, align 8, !range !6, !noundef !7
  %74 = trunc i8 %73 to i1
  %75 = load ptr, ptr %7, align 8
  %76 = getelementptr inbounds nuw %struct._spdu_signal_list_uat, ptr %75, i32 0, i32 6
  %77 = zext i1 %74 to i8
  store i8 %77, ptr %76, align 8
  %78 = load ptr, ptr %8, align 8
  %79 = getelementptr inbounds nuw %struct._spdu_signal_list_uat, ptr %78, i32 0, i32 7
  %80 = load i32, ptr %79, align 4
  %81 = load ptr, ptr %7, align 8
  %82 = getelementptr inbounds nuw %struct._spdu_signal_list_uat, ptr %81, i32 0, i32 7
  store i32 %80, ptr %82, align 4
  %83 = load ptr, ptr %8, align 8
  %84 = getelementptr inbounds nuw %struct._spdu_signal_list_uat, ptr %83, i32 0, i32 8
  %85 = load i32, ptr %84, align 8
  %86 = load ptr, ptr %7, align 8
  %87 = getelementptr inbounds nuw %struct._spdu_signal_list_uat, ptr %86, i32 0, i32 8
  store i32 %85, ptr %87, align 8
  %88 = load ptr, ptr %8, align 8
  %89 = getelementptr inbounds nuw %struct._spdu_signal_list_uat, ptr %88, i32 0, i32 9
  %90 = load ptr, ptr %89, align 8
  %91 = icmp ne ptr %90, null
  br i1 %91, label %92, label %99

92:                                               ; preds = %70
  %93 = load ptr, ptr %8, align 8
  %94 = getelementptr inbounds nuw %struct._spdu_signal_list_uat, ptr %93, i32 0, i32 9
  %95 = load ptr, ptr %94, align 8
  %96 = call noalias ptr @g_strdup(ptr noundef %95)
  %97 = load ptr, ptr %7, align 8
  %98 = getelementptr inbounds nuw %struct._spdu_signal_list_uat, ptr %97, i32 0, i32 9
  store ptr %96, ptr %98, align 8
  br label %102

99:                                               ; preds = %70
  %100 = load ptr, ptr %7, align 8
  %101 = getelementptr inbounds nuw %struct._spdu_signal_list_uat, ptr %100, i32 0, i32 9
  store ptr null, ptr %101, align 8
  br label %102

102:                                              ; preds = %99, %92
  %103 = load ptr, ptr %8, align 8
  %104 = getelementptr inbounds nuw %struct._spdu_signal_list_uat, ptr %103, i32 0, i32 10
  %105 = load ptr, ptr %104, align 8
  %106 = icmp ne ptr %105, null
  br i1 %106, label %107, label %114

107:                                              ; preds = %102
  %108 = load ptr, ptr %8, align 8
  %109 = getelementptr inbounds nuw %struct._spdu_signal_list_uat, ptr %108, i32 0, i32 10
  %110 = load ptr, ptr %109, align 8
  %111 = call noalias ptr @g_strdup(ptr noundef %110)
  %112 = load ptr, ptr %7, align 8
  %113 = getelementptr inbounds nuw %struct._spdu_signal_list_uat, ptr %112, i32 0, i32 10
  store ptr %111, ptr %113, align 8
  br label %117

114:                                              ; preds = %102
  %115 = load ptr, ptr %7, align 8
  %116 = getelementptr inbounds nuw %struct._spdu_signal_list_uat, ptr %115, i32 0, i32 10
  store ptr null, ptr %116, align 8
  br label %117

117:                                              ; preds = %114, %107
  %118 = load ptr, ptr %8, align 8
  %119 = getelementptr inbounds nuw %struct._spdu_signal_list_uat, ptr %118, i32 0, i32 11
  %120 = load i8, ptr %119, align 8, !range !6, !noundef !7
  %121 = trunc i8 %120 to i1
  %122 = load ptr, ptr %7, align 8
  %123 = getelementptr inbounds nuw %struct._spdu_signal_list_uat, ptr %122, i32 0, i32 11
  %124 = zext i1 %121 to i8
  store i8 %124, ptr %123, align 8
  %125 = load ptr, ptr %8, align 8
  %126 = getelementptr inbounds nuw %struct._spdu_signal_list_uat, ptr %125, i32 0, i32 12
  %127 = load i32, ptr %126, align 4
  %128 = load ptr, ptr %7, align 8
  %129 = getelementptr inbounds nuw %struct._spdu_signal_list_uat, ptr %128, i32 0, i32 12
  store i32 %127, ptr %129, align 4
  %130 = load ptr, ptr %8, align 8
  %131 = getelementptr inbounds nuw %struct._spdu_signal_list_uat, ptr %130, i32 0, i32 13
  %132 = load i8, ptr %131, align 8, !range !6, !noundef !7
  %133 = trunc i8 %132 to i1
  %134 = load ptr, ptr %7, align 8
  %135 = getelementptr inbounds nuw %struct._spdu_signal_list_uat, ptr %134, i32 0, i32 13
  %136 = zext i1 %133 to i8
  store i8 %136, ptr %135, align 8
  %137 = load ptr, ptr %8, align 8
  %138 = getelementptr inbounds nuw %struct._spdu_signal_list_uat, ptr %137, i32 0, i32 14
  %139 = load i8, ptr %138, align 1, !range !6, !noundef !7
  %140 = trunc i8 %139 to i1
  %141 = load ptr, ptr %7, align 8
  %142 = getelementptr inbounds nuw %struct._spdu_signal_list_uat, ptr %141, i32 0, i32 14
  %143 = zext i1 %140 to i8
  store i8 %143, ptr %142, align 1
  %144 = load ptr, ptr %8, align 8
  %145 = getelementptr inbounds nuw %struct._spdu_signal_list_uat, ptr %144, i32 0, i32 15
  %146 = load i8, ptr %145, align 2, !range !6, !noundef !7
  %147 = trunc i8 %146 to i1
  %148 = load ptr, ptr %7, align 8
  %149 = getelementptr inbounds nuw %struct._spdu_signal_list_uat, ptr %148, i32 0, i32 15
  %150 = zext i1 %147 to i8
  store i8 %150, ptr %149, align 2
  %151 = load ptr, ptr %8, align 8
  %152 = getelementptr inbounds nuw %struct._spdu_signal_list_uat, ptr %151, i32 0, i32 16
  %153 = load i8, ptr %152, align 1, !range !6, !noundef !7
  %154 = trunc i8 %153 to i1
  %155 = load ptr, ptr %7, align 8
  %156 = getelementptr inbounds nuw %struct._spdu_signal_list_uat, ptr %155, i32 0, i32 16
  %157 = zext i1 %154 to i8
  store i8 %157, ptr %156, align 1
  %158 = load ptr, ptr %7, align 8
  call void @llvm.lifetime.end.p0(i64 8, ptr %8) #14
  call void @llvm.lifetime.end.p0(i64 8, ptr %7) #14
  ret ptr %158
}