; Function Attrs: null_pointer_is_valid sspstrong uwtable
define internal noundef ptr @copy_spdu_signal_list_cb(ptr noundef returned writeonly captures(ret: address, provenance) initializes((0, 12), (16, 41), (44, 52), (56, 73), (76, 84)) %0, ptr noundef readonly captures(none) %1, i64 %2) #0 {
  %4 = load i32, ptr %1, align 8
  store i32 %4, ptr %0, align 8
  %5 = getelementptr inbounds nuw i8, ptr %1, i64 4
  %6 = load i32, ptr %5, align 4
  %7 = getelementptr inbounds nuw i8, ptr %0, i64 4
  store i32 %6, ptr %7, align 4
  %8 = getelementptr inbounds nuw i8, ptr %1, i64 8
  %9 = load i32, ptr %8, align 8
  %10 = getelementptr inbounds nuw i8, ptr %0, i64 8
  store i32 %9, ptr %10, align 8
  %11 = getelementptr inbounds nuw i8, ptr %1, i64 16
  %12 = load ptr, ptr %11, align 8
  %.not = icmp eq ptr %12, null
  br i1 %.not, label %15, label %13

13:                                               ; preds = %3
  %14 = tail call noalias ptr @g_strdup(ptr noundef nonnull %12)
  br label %15

15:                                               ; preds = %3, %13
  %.sink = phi ptr [ %14, %13 ], [ null, %3 ]
  %16 = getelementptr inbounds nuw i8, ptr %0, i64 16
  store ptr %.sink, ptr %16, align 8
  %17 = getelementptr inbounds nuw i8, ptr %1, i64 24
  %18 = load ptr, ptr %17, align 8
  %.not51 = icmp eq ptr %18, null
  br i1 %.not51, label %21, label %19

19:                                               ; preds = %15
  %20 = tail call noalias ptr @g_strdup(ptr noundef nonnull %18)
  br label %21

21:                                               ; preds = %15, %19
  %.sink55 = phi ptr [ %20, %19 ], [ null, %15 ]
  %22 = getelementptr inbounds nuw i8, ptr %0, i64 24
  store ptr %.sink55, ptr %22, align 8
  %23 = getelementptr inbounds nuw i8, ptr %1, i64 32
  %24 = load ptr, ptr %23, align 8
  %.not52 = icmp eq ptr %24, null
  br i1 %.not52, label %27, label %25

25:                                               ; preds = %21
  %26 = tail call noalias ptr @g_strdup(ptr noundef nonnull %24)
  br label %27

27:                                               ; preds = %21, %25
  %.sink56 = phi ptr [ %26, %25 ], [ null, %21 ]
  %28 = getelementptr inbounds nuw i8, ptr %0, i64 32
  store ptr %.sink56, ptr %28, align 8
  %29 = getelementptr inbounds nuw i8, ptr %1, i64 40
  %30 = load i8, ptr %29, align 8, !range !6, !noundef !7
  %31 = getelementptr inbounds nuw i8, ptr %0, i64 40
  store i8 %30, ptr %31, align 8
  %32 = getelementptr inbounds nuw i8, ptr %1, i64 44
  %33 = load i32, ptr %32, align 4
  %34 = getelementptr inbounds nuw i8, ptr %0, i64 44
  store i32 %33, ptr %34, align 4
  %35 = getelementptr inbounds nuw i8, ptr %1, i64 48
  %36 = load i32, ptr %35, align 8
  %37 = getelementptr inbounds nuw i8, ptr %0, i64 48
  store i32 %36, ptr %37, align 8
  %38 = getelementptr inbounds nuw i8, ptr %1, i64 56
  %39 = load ptr, ptr %38, align 8
  %.not53 = icmp eq ptr %39, null
  br i1 %.not53, label %42, label %40

40:                                               ; preds = %27
  %41 = tail call noalias ptr @g_strdup(ptr noundef nonnull %39)
  br label %42

42:                                               ; preds = %27, %40
  %.sink57 = phi ptr [ %41, %40 ], [ null, %27 ]
  %43 = getelementptr inbounds nuw i8, ptr %0, i64 56
  store ptr %.sink57, ptr %43, align 8
  %44 = getelementptr inbounds nuw i8, ptr %1, i64 64
  %45 = load ptr, ptr %44, align 8
  %.not54 = icmp eq ptr %45, null
  br i1 %.not54, label %48, label %46

46:                                               ; preds = %42
  %47 = tail call noalias ptr @g_strdup(ptr noundef nonnull %45)
  br label %48

48:                                               ; preds = %42, %46
  %.sink58 = phi ptr [ %47, %46 ], [ null, %42 ]
  %49 = getelementptr inbounds nuw i8, ptr %0, i64 64
  store ptr %.sink58, ptr %49, align 8
  %50 = getelementptr inbounds nuw i8, ptr %1, i64 72
  %51 = load i8, ptr %50, align 8, !range !6, !noundef !7
  %52 = getelementptr inbounds nuw i8, ptr %0, i64 72
  store i8 %51, ptr %52, align 8
  %53 = getelementptr inbounds nuw i8, ptr %1, i64 76
  %54 = load i32, ptr %53, align 4
  %55 = getelementptr inbounds nuw i8, ptr %0, i64 76
  store i32 %54, ptr %55, align 4
  %56 = getelementptr inbounds nuw i8, ptr %1, i64 80
  %57 = load i8, ptr %56, align 8, !range !6, !noundef !7
  %58 = getelementptr inbounds nuw i8, ptr %0, i64 80
  store i8 %57, ptr %58, align 8
  %59 = getelementptr inbounds nuw i8, ptr %1, i64 81
  %60 = load i8, ptr %59, align 1, !range !6, !noundef !7
  %61 = getelementptr inbounds nuw i8, ptr %0, i64 81
  store i8 %60, ptr %61, align 1
  %62 = getelementptr inbounds nuw i8, ptr %1, i64 82
  %63 = load i8, ptr %62, align 2, !range !6, !noundef !7
  %64 = getelementptr inbounds nuw i8, ptr %0, i64 82
  store i8 %63, ptr %64, align 2
  %65 = getelementptr inbounds nuw i8, ptr %1, i64 83
  %66 = load i8, ptr %65, align 1, !range !6, !noundef !7
  %67 = getelementptr inbounds nuw i8, ptr %0, i64 83
  store i8 %66, ptr %67, align 1
  ret ptr %0
}